target datalayout = "e-m:e-p270:32:32-p271:32:32-p272:64:64-i64:64-i128:128-f80:128-n8:16:32:64-S128"
target triple = "x86_64-pc-linux-gnu"

%union.SourceSpan = type { i64 }
%struct.Vmem = type { ptr, i64, i64 }
%struct.Signature_ = type <{ %struct.CalleeAttributes, i16, i8, i32, i32, [4 x i8], ptr }>
%struct.CalleeAttributes = type { i8 }
%struct.Decl_ = type { ptr, ptr, %union.SourceSpan, i64, %union.anon, i32, %union.anon.0, i64, ptr, ptr, ptr, %union.anon.1 }
%union.anon = type { ptr }
%union.anon.0 = type { i16 }
%union.anon.1 = type { %struct.FuncDecl }
%struct.FuncDecl = type { i32, [4 x i8], %struct.Signature_, i32, i32, %union.anon.8 }
%union.anon.8 = type { %struct.anon.9 }
%struct.anon.9 = type { i16, %union.anon.10 }
%union.anon.10 = type { ptr }
%struct.Type_ = type { i32, ptr, ptr, ptr, %union.anon.85, ptr, ptr, %union.anon.87 }
%union.anon.85 = type { ptr }
%union.anon.87 = type { %struct.TypeFunction }
%struct.TypeFunction = type { ptr, ptr, ptr }
%struct.TypeInfo_ = type { i16, ptr, %union.SourceSpan, %union.anon.56 }
%union.anon.56 = type { %struct.anon.57 }
%struct.anon.57 = type { ptr, ptr }
%struct.VarDecl_ = type { i32, i32, %union.anon.14, %union.anon.15 }
%union.anon.14 = type { ptr }
%union.anon.15 = type { %struct.anon.16 }
%struct.anon.16 = type { ptr, %union.SourceSpan }
%struct.Expr_ = type { ptr, %union.SourceSpan, i16, %union.anon.29 }
%union.anon.29 = type { %struct.ExprAnySwitch }
%struct.ExprAnySwitch = type { i8, %union.anon.31 }
%union.anon.31 = type { %struct.anon.32 }
%struct.anon.32 = type { ptr, %union.SourceSpan, ptr }

@.str.2 = private unnamed_addr constant [36 x i8] c"FATAL ERROR %s -> in %s @ in %s:%d \00", align 1
@.str.3 = private unnamed_addr constant [22 x i8] c"Should be unreachable\00", align 1
@.str.4 = private unnamed_addr constant [111 x i8] c"generated/home/dtcxzyw/WorkSpace/Projects/compilers/llvm-opt-benchmark/bench/c3c/c3c/src/compiler/sema_decls.c\00", align 1
@.str.8 = private unnamed_addr constant [49 x i8] c"Compile time type variables may not have a type.\00", align 1
@.str.9 = private unnamed_addr constant [32 x i8] c"Expected a type assigned to %s.\00", align 1
@.str.10 = private unnamed_addr constant [47 x i8] c"Expected a constant expression assigned to %s.\00", align 1
@type_void = external global ptr, align 8
@__func__.sema_analyse_var_decl_ct = private unnamed_addr constant [25 x i8] c"sema_analyse_var_decl_ct\00", align 1
@type_info_arena = external global %struct.Vmem, align 8

; Function Attrs: nounwind uwtable
define internal ptr @type_infoptrzero(i32 noundef %0) #0 {
  %2 = alloca i32, align 4
  store i32 %0, ptr %2, align 4
  %3 = load i32, ptr %2, align 4
  %4 = icmp ne i32 %3, 0
  br i1 %4, label %5, label %10

5:                                                ; preds = %1
  %6 = load ptr, ptr @type_info_arena, align 8
  %7 = load i32, ptr %2, align 4
  %8 = zext i32 %7 to i64
  %9 = getelementptr inbounds %struct.TypeInfo_, ptr %6, i64 %8
  br label %11

10:                                               ; preds = %1
  br label %11

11:                                               ; preds = %10, %5
  %12 = phi ptr [ %9, %5 ], [ null, %10 ]
  ret ptr %12
}

; Function Attrs: nounwind uwtable
define dso_local zeroext i1 @sema_analyse_var_decl_ct(ptr noundef %0, ptr noundef %1) #0 {
  %3 = alloca ptr, align 8
  %4 = alloca ptr, align 8
  %5 = alloca i1, align 1
  %6 = alloca ptr, align 8
  %7 = alloca ptr, align 8
  %8 = alloca ptr, align 8
  %9 = alloca ptr, align 8
  store ptr %0, ptr %6, align 8
  store ptr %1, ptr %7, align 8
  %10 = load ptr, ptr %7, align 8
  store ptr %10, ptr %4, align 8
  %11 = load ptr, ptr %4, align 8
  %12 = getelementptr inbounds %struct.Decl_, ptr %11, i32 0, i32 11
  %13 = getelementptr inbounds %struct.VarDecl_, ptr %12, i32 0, i32 1
  %14 = load i32, ptr %13, align 4
  %15 = call ptr @type_infoptrzero(i32 noundef %14)
  store ptr %15, ptr %9, align 8
  %16 = load ptr, ptr %7, align 8
  %17 = getelementptr inbounds %struct.Decl_, ptr %16, i32 0, i32 11
  %18 = load i32, ptr %17, align 8
  %19 = and i32 %18, 255
  switch i32 %19, label %151 [
    i32 14, label %20
    i32 13, label %59
  ]

20:                                               ; preds = %2
  %21 = load ptr, ptr %9, align 8
  %22 = icmp ne ptr %21, null
  br i1 %22, label %23, label %28

23:                                               ; preds = %20
  %24 = load ptr, ptr %9, align 8
  %25 = getelementptr inbounds %struct.TypeInfo_, ptr %24, i32 0, i32 2
  %26 = getelementptr inbounds %union.SourceSpan, ptr %25, i32 0, i32 0
  %27 = load i64, ptr %26, align 8
  call void (i64, ptr, ...) @sema_error_at(i64 %27, ptr noundef @.str.8)
  br label %158

28:                                               ; preds = %20
  %29 = load ptr, ptr %7, align 8
  %30 = getelementptr inbounds %struct.Decl_, ptr %29, i32 0, i32 11
  %31 = getelementptr inbounds %struct.VarDecl_, ptr %30, i32 0, i32 2
  %32 = load ptr, ptr %31, align 8
  store ptr %32, ptr %8, align 8
  %33 = icmp ne ptr %32, null
  br i1 %33, label %34, label %58

34:                                               ; preds = %28
  %35 = load ptr, ptr %6, align 8
  %36 = load ptr, ptr %8, align 8
  %37 = call zeroext i1 @sema_analyse_expr_lvalue_fold_const(ptr noundef %35, ptr noundef %36)
  br i1 %37, label %39, label %38

38:                                               ; preds = %34
  br label %158

39:                                               ; preds = %34
  %40 = load ptr, ptr %8, align 8
  %41 = getelementptr inbounds %struct.Expr_, ptr %40, i32 0, i32 2
  %42 = load i16, ptr %41, align 8
  %43 = and i16 %42, 255
  %44 = zext i16 %43 to i32
  %45 = icmp ne i32 %44, 62
  br i1 %45, label %46, label %57

46:                                               ; preds = %39
  %47 = load ptr, ptr %7, align 8
  %48 = getelementptr inbounds %struct.Decl_, ptr %47, i32 0, i32 11
  %49 = getelementptr inbounds %struct.VarDecl_, ptr %48, i32 0, i32 2
  %50 = load ptr, ptr %49, align 8
  %51 = getelementptr inbounds %struct.Expr_, ptr %50, i32 0, i32 1
  %52 = load ptr, ptr %7, align 8
  %53 = getelementptr inbounds %struct.Decl_, ptr %52, i32 0, i32 0
  %54 = load ptr, ptr %53, align 8
  %55 = getelementptr inbounds %union.SourceSpan, ptr %51, i32 0, i32 0
  %56 = load i64, ptr %55, align 8
  call void (i64, ptr, ...) @sema_error_at(i64 %56, ptr noundef @.str.9, ptr noundef %54)
  br label %158

57:                                               ; preds = %39
  br label %58

58:                                               ; preds = %57, %28
  br label %154

59:                                               ; preds = %2
  %60 = load ptr, ptr %9, align 8
  %61 = icmp ne ptr %60, null
  br i1 %61, label %62, label %67

62:                                               ; preds = %59
  %63 = load ptr, ptr %6, align 8
  %64 = load ptr, ptr %9, align 8
  %65 = call zeroext i1 @sema_resolve_type_info(ptr noundef %63, ptr noundef %64, i32 noundef 0)
  br i1 %65, label %67, label %66

66:                                               ; preds = %62
  br label %158

67:                                               ; preds = %62, %59
  %68 = load ptr, ptr %9, align 8
  %69 = icmp ne ptr %68, null
  br i1 %69, label %70, label %117

70:                                               ; preds = %67
  %71 = load ptr, ptr %9, align 8
  %72 = getelementptr inbounds %struct.TypeInfo_, ptr %71, i32 0, i32 1
  %73 = load ptr, ptr %72, align 8
  %74 = getelementptr inbounds %struct.Type_, ptr %73, i32 0, i32 1
  %75 = load ptr, ptr %74, align 8
  %76 = load ptr, ptr %7, align 8
  %77 = getelementptr inbounds %struct.Decl_, ptr %76, i32 0, i32 10
  store ptr %75, ptr %77, align 8
  %78 = load ptr, ptr %7, align 8
  %79 = getelementptr inbounds %struct.Decl_, ptr %78, i32 0, i32 11
  %80 = getelementptr inbounds %struct.VarDecl_, ptr %79, i32 0, i32 2
  %81 = load ptr, ptr %80, align 8
  store ptr %81, ptr %8, align 8
  %82 = load ptr, ptr %8, align 8
  %83 = icmp ne ptr %82, null
  br i1 %83, label %97, label %84

84:                                               ; preds = %70
  %85 = load ptr, ptr %7, align 8
  %86 = getelementptr inbounds %struct.Decl_, ptr %85, i32 0, i32 2
  %87 = getelementptr inbounds %union.SourceSpan, ptr %86, i32 0, i32 0
  %88 = load i64, ptr %87, align 8
  %89 = call ptr @expr_new(i32 noundef 0, i64 %88)
  store ptr %89, ptr %8, align 8
  %90 = load ptr, ptr %7, align 8
  %91 = getelementptr inbounds %struct.Decl_, ptr %90, i32 0, i32 11
  %92 = getelementptr inbounds %struct.VarDecl_, ptr %91, i32 0, i32 2
  store ptr %89, ptr %92, align 8
  %93 = load ptr, ptr %8, align 8
  %94 = load ptr, ptr %7, align 8
  %95 = getelementptr inbounds %struct.Decl_, ptr %94, i32 0, i32 10
  %96 = load ptr, ptr %95, align 8
  call void @expr_rewrite_to_const_zero(ptr noundef %93, ptr noundef %96)
  br label %97

97:                                               ; preds = %84, %70
  %98 = load ptr, ptr %6, align 8
  %99 = load ptr, ptr %7, align 8
  %100 = getelementptr inbounds %struct.Decl_, ptr %99, i32 0, i32 10
  %101 = load ptr, ptr %100, align 8
  %102 = load ptr, ptr %8, align 8
  %103 = call zeroext i1 @sema_analyse_expr_rhs(ptr noundef %98, ptr noundef %101, ptr noundef %102, i1 noundef zeroext false, ptr noundef null)
  br i1 %103, label %105, label %104

104:                                              ; preds = %97
  br label %158

105:                                              ; preds = %97
  %106 = load ptr, ptr %8, align 8
  %107 = call zeroext i1 @expr_is_constant_eval(ptr noundef %106, i32 noundef 3)
  br i1 %107, label %116, label %108

108:                                              ; preds = %105
  %109 = load ptr, ptr %8, align 8
  %110 = getelementptr inbounds %struct.Expr_, ptr %109, i32 0, i32 1
  %111 = load ptr, ptr %7, align 8
  %112 = getelementptr inbounds %struct.Decl_, ptr %111, i32 0, i32 0
  %113 = load ptr, ptr %112, align 8
  %114 = getelementptr inbounds %union.SourceSpan, ptr %110, i32 0, i32 0
  %115 = load i64, ptr %114, align 8
  call void (i64, ptr, ...) @sema_error_at(i64 %115, ptr noundef @.str.10, ptr noundef %113)
  br label %158

116:                                              ; preds = %105
  br label %150

117:                                              ; preds = %67
  %118 = load ptr, ptr %7, align 8
  %119 = getelementptr inbounds %struct.Decl_, ptr %118, i32 0, i32 11
  %120 = getelementptr inbounds %struct.VarDecl_, ptr %119, i32 0, i32 2
  %121 = load ptr, ptr %120, align 8
  store ptr %121, ptr %8, align 8
  %122 = icmp ne ptr %121, null
  br i1 %122, label %123, label %145

123:                                              ; preds = %117
  %124 = load ptr, ptr %6, align 8
  %125 = load ptr, ptr %8, align 8
  %126 = call zeroext i1 @sema_analyse_expr(ptr noundef %124, ptr noundef %125)
  br i1 %126, label %128, label %127

127:                                              ; preds = %123
  br label %158

128:                                              ; preds = %123
  %129 = load ptr, ptr %8, align 8
  %130 = call zeroext i1 @expr_is_constant_eval(ptr noundef %129, i32 noundef 3)
  br i1 %130, label %139, label %131

131:                                              ; preds = %128
  %132 = load ptr, ptr %8, align 8
  %133 = getelementptr inbounds %struct.Expr_, ptr %132, i32 0, i32 1
  %134 = load ptr, ptr %7, align 8
  %135 = getelementptr inbounds %struct.Decl_, ptr %134, i32 0, i32 0
  %136 = load ptr, ptr %135, align 8
  %137 = getelementptr inbounds %union.SourceSpan, ptr %133, i32 0, i32 0
  %138 = load i64, ptr %137, align 8
  call void (i64, ptr, ...) @sema_error_at(i64 %138, ptr noundef @.str.10, ptr noundef %136)
  br label %158

139:                                              ; preds = %128
  %140 = load ptr, ptr %8, align 8
  %141 = getelementptr inbounds %struct.Expr_, ptr %140, i32 0, i32 0
  %142 = load ptr, ptr %141, align 8
  %143 = load ptr, ptr %7, align 8
  %144 = getelementptr inbounds %struct.Decl_, ptr %143, i32 0, i32 10
  store ptr %142, ptr %144, align 8
  br label %149

145:                                              ; preds = %117
  %146 = load ptr, ptr @type_void, align 8
  %147 = load ptr, ptr %7, align 8
  %148 = getelementptr inbounds %struct.Decl_, ptr %147, i32 0, i32 10
  store ptr %146, ptr %148, align 8
  br label %149

149:                                              ; preds = %145, %139
  br label %150

150:                                              ; preds = %149, %116
  br label %154

151:                                              ; preds = %2
  br label %152

152:                                              ; preds = %151
  call void (ptr, ...) @error_exit(ptr noundef @.str.2, ptr noundef @.str.3, ptr noundef @__func__.sema_analyse_var_decl_ct, ptr noundef @.str.4, i32 noundef 3175) #6
  unreachable

153:                                              ; No predecessors!
  br label %154

154:                                              ; preds = %153, %150, %58
  %155 = load ptr, ptr %6, align 8
  %156 = load ptr, ptr %7, align 8
  %157 = call zeroext i1 @sema_add_local(ptr noundef %155, ptr noundef %156)
  store i1 %157, ptr %5, align 1
  br label %172

158:                                              ; preds = %131, %127, %108, %104, %66, %46, %38, %23
  %159 = load ptr, ptr %6, align 8
  %160 = load ptr, ptr %7, align 8
  %161 = call zeroext i1 @sema_add_local(ptr noundef %159, ptr noundef %160)
  %162 = load ptr, ptr %7, align 8
  store ptr %162, ptr %3, align 8
  %163 = load ptr, ptr %3, align 8
  %164 = getelementptr inbounds %struct.Decl_, ptr %163, i32 0, i32 3
  %165 = load i64, ptr %164, align 8
  %166 = and i64 %165, -128
  store i64 %166, ptr %164, align 8
  %167 = load ptr, ptr %3, align 8
  %168 = getelementptr inbounds %struct.Decl_, ptr %167, i32 0, i32 3
  %169 = load i64, ptr %168, align 8
  %170 = and i64 %169, -897
  %171 = or i64 %170, 256
  store i64 %171, ptr %168, align 8
  store i1 false, ptr %5, align 1
  br label %172

172:                                              ; preds = %158, %154
  %173 = load i1, ptr %5, align 1
  ret i1 %173
}