; Function Attrs: nounwind uwtable
define dso_local zeroext i1 @sema_analyse_var_decl_ct(ptr noundef %0, ptr noundef %1) local_unnamed_addr #0 {
  %3 = getelementptr inbounds i8, ptr %1, i64 80
  %4 = getelementptr inbounds i8, ptr %1, i64 84
  %5 = load i32, ptr %4, align 4
  %.not.i = icmp eq i32 %5, 0
  %6 = load ptr, ptr @type_info_arena, align 8
  %7 = zext i32 %5 to i64
  %8 = getelementptr inbounds %struct.TypeInfo_, ptr %6, i64 %7
  %9 = select i1 %.not.i, ptr null, ptr %8
  %10 = load i32, ptr %3, align 8
  %trunc = trunc i32 %10 to i8
  switch i8 %trunc, label %64 [
    i8 14, label %11
    i8 13, label %29
  ]

11:                                               ; preds = %2
  %.not53 = icmp eq ptr %9, null
  br i1 %.not53, label %15, label %12

12:                                               ; preds = %11
  %13 = getelementptr inbounds i8, ptr %9, i64 16
  %14 = load i64, ptr %13, align 8
  tail call void (i64, ptr, ...) @sema_error_at(i64 %14, ptr noundef nonnull @.str.8) #10
  br label %69

15:                                               ; preds = %11
  %16 = getelementptr inbounds i8, ptr %1, i64 88
  %17 = load ptr, ptr %16, align 8
  %.not54 = icmp eq ptr %17, null
  br i1 %.not54, label %67, label %18

18:                                               ; preds = %15
  %19 = tail call zeroext i1 @sema_analyse_expr_lvalue_fold_const(ptr noundef %0, ptr noundef nonnull %17) #10
  br i1 %19, label %20, label %69

20:                                               ; preds = %18
  %21 = getelementptr inbounds i8, ptr %17, i64 16
  %22 = load i16, ptr %21, align 8
  %23 = and i16 %22, 255
  %.not55 = icmp eq i16 %23, 62
  br i1 %.not55, label %67, label %24

24:                                               ; preds = %20
  %25 = load ptr, ptr %16, align 8
  %26 = getelementptr inbounds i8, ptr %25, i64 8
  %27 = load ptr, ptr %1, align 8
  %28 = load i64, ptr %26, align 8
  tail call void (i64, ptr, ...) @sema_error_at(i64 %28, ptr noundef nonnull @.str.9, ptr noundef %27) #10
  br label %69

29:                                               ; preds = %2
  %.not = icmp eq ptr %9, null
  br i1 %.not, label %.critedge, label %30

30:                                               ; preds = %29
  %31 = tail call zeroext i1 @sema_resolve_type_info(ptr noundef %0, ptr noundef nonnull %9, i32 noundef 0) #10
  br i1 %31, label %32, label %69

32:                                               ; preds = %30
  %33 = getelementptr inbounds i8, ptr %9, i64 8
  %34 = load ptr, ptr %33, align 8
  %35 = getelementptr inbounds i8, ptr %34, i64 8
  %36 = load ptr, ptr %35, align 8
  %37 = getelementptr inbounds i8, ptr %1, i64 72
  store ptr %36, ptr %37, align 8
  %38 = getelementptr inbounds i8, ptr %1, i64 88
  %39 = load ptr, ptr %38, align 8
  %.not52 = icmp eq ptr %39, null
  br i1 %.not52, label %40, label %45

40:                                               ; preds = %32
  %41 = getelementptr inbounds i8, ptr %1, i64 16
  %42 = load i64, ptr %41, align 8
  %43 = tail call ptr @expr_new(i32 noundef 0, i64 %42) #10
  store ptr %43, ptr %38, align 8
  %44 = load ptr, ptr %37, align 8
  tail call void @expr_rewrite_to_const_zero(ptr noundef %43, ptr noundef %44) #10
  %.pre = load ptr, ptr %37, align 8
  br label %45

45:                                               ; preds = %40, %32
  %46 = phi ptr [ %36, %32 ], [ %.pre, %40 ]
  %.046 = phi ptr [ %39, %32 ], [ %43, %40 ]
  %47 = tail call zeroext i1 @sema_analyse_expr_rhs(ptr noundef %0, ptr noundef %46, ptr noundef %.046, i1 noundef zeroext false, ptr noundef null) #10
  br i1 %47, label %48, label %69

48:                                               ; preds = %45
  %49 = tail call zeroext i1 @expr_is_constant_eval(ptr noundef %.046, i32 noundef 3) #10
  br i1 %49, label %67, label %50

50:                                               ; preds = %48
  %51 = getelementptr inbounds i8, ptr %.046, i64 8
  %52 = load ptr, ptr %1, align 8
  %53 = load i64, ptr %51, align 8
  tail call void (i64, ptr, ...) @sema_error_at(i64 %53, ptr noundef nonnull @.str.10, ptr noundef %52) #10
  br label %69

.critedge:                                        ; preds = %29
  %54 = getelementptr inbounds i8, ptr %1, i64 88
  %55 = load ptr, ptr %54, align 8
  %.not51 = icmp eq ptr %55, null
  br i1 %.not51, label %.sink.split, label %56

56:                                               ; preds = %.critedge
  %57 = tail call zeroext i1 @sema_analyse_expr(ptr noundef %0, ptr noundef nonnull %55) #10
  br i1 %57, label %58, label %69

58:                                               ; preds = %56
  %59 = tail call zeroext i1 @expr_is_constant_eval(ptr noundef nonnull %55, i32 noundef 3) #10
  br i1 %59, label %.sink.split, label %60

60:                                               ; preds = %58
  %61 = getelementptr inbounds i8, ptr %55, i64 8
  %62 = load ptr, ptr %1, align 8
  %63 = load i64, ptr %61, align 8
  tail call void (i64, ptr, ...) @sema_error_at(i64 %63, ptr noundef nonnull @.str.10, ptr noundef %62) #10
  br label %69

64:                                               ; preds = %2
  tail call void (ptr, ...) @error_exit(ptr noundef nonnull @.str.2, ptr noundef nonnull @.str.3, ptr noundef nonnull @__func__.sema_analyse_var_decl_ct, ptr noundef nonnull @.str.4, i32 noundef 3175) #11
  unreachable

.sink.split:                                      ; preds = %.critedge, %58
  %type_void.sink = phi ptr [ %55, %58 ], [ @type_void, %.critedge ]
  %65 = load ptr, ptr %type_void.sink, align 8
  %66 = getelementptr inbounds i8, ptr %1, i64 72
  store ptr %65, ptr %66, align 8
  br label %67

67:                                               ; preds = %.sink.split, %48, %15, %20
  %68 = tail call zeroext i1 @sema_add_local(ptr noundef %0, ptr noundef nonnull %1) #10
  br label %75

69:                                               ; preds = %56, %45, %30, %18, %60, %50, %24, %12
  %70 = tail call zeroext i1 @sema_add_local(ptr noundef %0, ptr noundef nonnull %1) #10
  %71 = getelementptr inbounds i8, ptr %1, i64 24
  %72 = load i64, ptr %71, align 8
  %73 = and i64 %72, -1024
  %74 = or disjoint i64 %73, 256
  store i64 %74, ptr %71, align 8
  br label %75

75:                                               ; preds = %69, %67
  %.0 = phi i1 [ %68, %67 ], [ false, %69 ]
  ret i1 %.0
}